; Function Attrs: nounwind uwtable
define dso_local i64 @trackingGetTotalKeys() local_unnamed_addr #0 {
  %1 = load ptr, ptr @TrackingTable, align 8, !tbaa !31
  %2 = icmp eq ptr %1, null
  br i1 %2, label %5, label %3

3:                                                ; preds = %0
  %4 = tail call i64 @raxSize(ptr noundef nonnull %1) #9
  br label %5

5:                                                ; preds = %0, %3
  %.0 = phi i64 [ %4, %3 ], [ 0, %0 ]
  ret i64 %.0
}